target datalayout = "e-m:e-p270:32:32-p271:32:32-p272:64:64-i64:64-i128:128-f80:128-n8:16:32:64-S128"
target triple = "x86_64-pc-linux-gnu"

%struct.llama_sampler = type { ptr, ptr }
%struct.llama_sampler_temp = type { float }

; Function Attrs: mustprogress uwtable
define ptr @llama_sampler_init(ptr noundef %0, ptr noundef %1) #0 {
  %3 = alloca ptr, align 8
  %4 = alloca ptr, align 8
  store ptr %0, ptr %3, align 8, !tbaa !3
  store ptr %1, ptr %4, align 8, !tbaa !8
  %5 = call noalias noundef nonnull ptr @_Znwm(i64 noundef 16) #19
  %6 = getelementptr inbounds nuw %struct.llama_sampler, ptr %5, i32 0, i32 0
  %7 = load ptr, ptr %3, align 8, !tbaa !3
  store ptr %7, ptr %6, align 16, !tbaa !9
  %8 = getelementptr inbounds nuw %struct.llama_sampler, ptr %5, i32 0, i32 1
  %9 = load ptr, ptr %4, align 8, !tbaa !8
  store ptr %9, ptr %8, align 8, !tbaa !11
  ret ptr %5
}

; Function Attrs: mustprogress uwtable
define ptr @llama_sampler_init_temp(float noundef %0) #0 {
  %2 = alloca float, align 4
  store float %0, ptr %2, align 4, !tbaa !36
  %3 = call noalias noundef nonnull ptr @_Znwm(i64 noundef 4) #19
  %4 = getelementptr inbounds nuw %struct.llama_sampler_temp, ptr %3, i32 0, i32 0
  %5 = load float, ptr %2, align 4, !tbaa !36
  store float %5, ptr %4, align 4, !tbaa !105
  %6 = call ptr @llama_sampler_init(ptr noundef @_ZL20llama_sampler_temp_i, ptr noundef %3)
  ret ptr %6
}

; Function Attrs: mustprogress uwtable
define internal noundef ptr @_ZL24llama_sampler_temp_clonePK13llama_sampler(ptr noundef %0) #0 {
  %2 = alloca ptr, align 8
  %3 = alloca ptr, align 8
  store ptr %0, ptr %2, align 8, !tbaa !12
  call void @llvm.lifetime.start.p0(i64 8, ptr %3) #14
  %4 = load ptr, ptr %2, align 8, !tbaa !12
  %5 = getelementptr inbounds nuw %struct.llama_sampler, ptr %4, i32 0, i32 1
  %6 = load ptr, ptr %5, align 8, !tbaa !11
  store ptr %6, ptr %3, align 8, !tbaa !531
  %7 = load ptr, ptr %3, align 8, !tbaa !531
  %8 = getelementptr inbounds nuw %struct.llama_sampler_temp, ptr %7, i32 0, i32 0
  %9 = load float, ptr %8, align 4, !tbaa !105
  %10 = call ptr @llama_sampler_init_temp(float noundef %9)
  call void @llvm.lifetime.end.p0(i64 8, ptr %3) #14
  ret ptr %10
}